target datalayout = "e-m:e-p270:32:32-p271:32:32-p272:64:64-i64:64-i128:128-f80:128-n8:16:32:64-S128"
target triple = "x86_64-unknown-linux-gnu"

%"struct.icu_75::RegularExpression" = type <{ i32, [4 x i8], ptr, ptr, ptr, i32, [4 x i8], ptr, ptr, i32, i8, [3 x i8] }>

; Function Attrs: mustprogress nounwind uwtable
define internal noundef signext i8 @_ZL9U_FAILURE10UErrorCode(i32 noundef %code) #0 {
entry:
  %code.addr = alloca i32, align 4
  store i32 %code, ptr %code.addr, align 4
  %0 = load i32, ptr %code.addr, align 4
  %cmp = icmp sgt i32 %0, 0
  %conv = zext i1 %cmp to i8
  ret i8 %conv
}

; Function Attrs: mustprogress nounwind uwtable
define internal noundef signext i8 @_ZL10validateREPKN6icu_7517RegularExpressionEaP10UErrorCode(ptr noundef %re, i8 noundef signext %requiresText, ptr noundef %status) #0 {
entry:
  %retval = alloca i8, align 1
  %re.addr = alloca ptr, align 8
  %requiresText.addr = alloca i8, align 1
  %status.addr = alloca ptr, align 8
  store ptr %re, ptr %re.addr, align 8
  store i8 %requiresText, ptr %requiresText.addr, align 1
  store ptr %status, ptr %status.addr, align 8
  %0 = load ptr, ptr %status.addr, align 8
  %1 = load i32, ptr %0, align 4
  %call = call noundef signext i8 @_ZL9U_FAILURE10UErrorCode(i32 noundef %1)
  %tobool = icmp ne i8 %call, 0
  br i1 %tobool, label %if.then, label %if.end

if.then:                                          ; preds = %entry
  store i8 0, ptr %retval, align 1
  br label %return

if.end:                                           ; preds = %entry
  %2 = load ptr, ptr %re.addr, align 8
  %cmp = icmp eq ptr %2, null
  br i1 %cmp, label %if.then2, label %lor.lhs.false

lor.lhs.false:                                    ; preds = %if.end
  %3 = load ptr, ptr %re.addr, align 8
  %fMagic = getelementptr inbounds %"struct.icu_75::RegularExpression", ptr %3, i32 0, i32 0
  %4 = load i32, ptr %fMagic, align 8
  %cmp1 = icmp ne i32 %4, 1919252592
  br i1 %cmp1, label %if.then2, label %if.end3

if.then2:                                         ; preds = %lor.lhs.false, %if.end
  %5 = load ptr, ptr %status.addr, align 8
  store i32 1, ptr %5, align 4
  store i8 0, ptr %retval, align 1
  br label %return

if.end3:                                          ; preds = %lor.lhs.false
  %6 = load i8, ptr %requiresText.addr, align 1
  %tobool4 = icmp ne i8 %6, 0
  br i1 %tobool4, label %land.lhs.true, label %if.end9

land.lhs.true:                                    ; preds = %if.end3
  %7 = load ptr, ptr %re.addr, align 8
  %fText = getelementptr inbounds %"struct.icu_75::RegularExpression", ptr %7, i32 0, i32 8
  %8 = load ptr, ptr %fText, align 8
  %cmp5 = icmp eq ptr %8, null
  br i1 %cmp5, label %land.lhs.true6, label %if.end9

land.lhs.true6:                                   ; preds = %land.lhs.true
  %9 = load ptr, ptr %re.addr, align 8
  %fOwnsText = getelementptr inbounds %"struct.icu_75::RegularExpression", ptr %9, i32 0, i32 10
  %10 = load i8, ptr %fOwnsText, align 4
  %tobool7 = icmp ne i8 %10, 0
  br i1 %tobool7, label %if.end9, label %if.then8

if.then8:                                         ; preds = %land.lhs.true6
  %11 = load ptr, ptr %status.addr, align 8
  store i32 66306, ptr %11, align 4
  store i8 0, ptr %retval, align 1
  br label %return

if.end9:                                          ; preds = %land.lhs.true6, %land.lhs.true, %if.end3
  store i8 1, ptr %retval, align 1
  br label %return

return:                                           ; preds = %if.end9, %if.then8, %if.then2, %if.then
  %12 = load i8, ptr %retval, align 1
  ret i8 %12
}

; Function Attrs: mustprogress uwtable
define i32 @uregex_group_75(ptr noundef %regexp2, i32 noundef %groupNum, ptr noundef %dest, i32 noundef %destCapacity, ptr noundef %status) #4 {
entry:
  %retval = alloca i32, align 4
  %regexp2.addr = alloca ptr, align 8
  %groupNum.addr = alloca i32, align 4
  %dest.addr = alloca ptr, align 8
  %destCapacity.addr = alloca i32, align 4
  %status.addr = alloca ptr, align 8
  %regexp = alloca ptr, align 8
  %startIx = alloca i32, align 4
  %endIx = alloca i32, align 4
  %fullLength = alloca i32, align 4
  %copyLength = alloca i32, align 4
  %start = alloca i64, align 8
  %limit = alloca i64, align 8
  %length = alloca i32, align 4
  store ptr %regexp2, ptr %regexp2.addr, align 8
  store i32 %groupNum, ptr %groupNum.addr, align 4
  store ptr %dest, ptr %dest.addr, align 8
  store i32 %destCapacity, ptr %destCapacity.addr, align 4
  store ptr %status, ptr %status.addr, align 8
  %0 = load ptr, ptr %regexp2.addr, align 8
  store ptr %0, ptr %regexp, align 8
  %1 = load ptr, ptr %regexp, align 8
  %2 = load ptr, ptr %status.addr, align 8
  %call = call noundef signext i8 @_ZL10validateREPKN6icu_7517RegularExpressionEaP10UErrorCode(ptr noundef %1, i8 noundef signext 1, ptr noundef %2)
  %conv = sext i8 %call to i32
  %cmp = icmp eq i32 %conv, 0
  br i1 %cmp, label %if.then, label %if.end

if.then:                                          ; preds = %entry
  store i32 0, ptr %retval, align 4
  br label %return

if.end:                                           ; preds = %entry
  %3 = load i32, ptr %destCapacity.addr, align 4
  %cmp1 = icmp slt i32 %3, 0
  br i1 %cmp1, label %if.then4, label %lor.lhs.false

lor.lhs.false:                                    ; preds = %if.end
  %4 = load i32, ptr %destCapacity.addr, align 4
  %cmp2 = icmp sgt i32 %4, 0
  br i1 %cmp2, label %land.lhs.true, label %if.end5

land.lhs.true:                                    ; preds = %lor.lhs.false
  %5 = load ptr, ptr %dest.addr, align 8
  %cmp3 = icmp eq ptr %5, null
  br i1 %cmp3, label %if.then4, label %if.end5

if.then4:                                         ; preds = %land.lhs.true, %if.end
  %6 = load ptr, ptr %status.addr, align 8
  store i32 1, ptr %6, align 4
  store i32 0, ptr %retval, align 4
  br label %return

if.end5:                                          ; preds = %land.lhs.true, %lor.lhs.false
  %7 = load i32, ptr %destCapacity.addr, align 4
  %cmp6 = icmp eq i32 %7, 0
  br i1 %cmp6, label %if.then9, label %lor.lhs.false7

lor.lhs.false7:                                   ; preds = %if.end5
  %8 = load ptr, ptr %regexp, align 8
  %fText = getelementptr inbounds %"struct.icu_75::RegularExpression", ptr %8, i32 0, i32 8
  %9 = load ptr, ptr %fText, align 8
  %cmp8 = icmp ne ptr %9, null
  br i1 %cmp8, label %if.then9, label %if.else30

if.then9:                                         ; preds = %lor.lhs.false7, %if.end5
  %10 = load ptr, ptr %regexp, align 8
  %fMatcher = getelementptr inbounds %"struct.icu_75::RegularExpression", ptr %10, i32 0, i32 7
  %11 = load ptr, ptr %fMatcher, align 8
  %12 = load i32, ptr %groupNum.addr, align 4
  %13 = load ptr, ptr %status.addr, align 8
  %call10 = call noundef i32 @_ZNK6icu_7512RegexMatcher5startEiR10UErrorCode(ptr noundef nonnull align 8 dereferenceable(336) %11, i32 noundef %12, ptr noundef nonnull align 4 dereferenceable(4) %13)
  store i32 %call10, ptr %startIx, align 4
  %14 = load ptr, ptr %regexp, align 8
  %fMatcher11 = getelementptr inbounds %"struct.icu_75::RegularExpression", ptr %14, i32 0, i32 7
  %15 = load ptr, ptr %fMatcher11, align 8
  %16 = load i32, ptr %groupNum.addr, align 4
  %17 = load ptr, ptr %status.addr, align 8
  %call12 = call noundef i32 @_ZNK6icu_7512RegexMatcher3endEiR10UErrorCode(ptr noundef nonnull align 8 dereferenceable(336) %15, i32 noundef %16, ptr noundef nonnull align 4 dereferenceable(4) %17)
  store i32 %call12, ptr %endIx, align 4
  %18 = load ptr, ptr %status.addr, align 8
  %19 = load i32, ptr %18, align 4
  %call13 = call noundef signext i8 @_ZL9U_FAILURE10UErrorCode(i32 noundef %19)
  %tobool = icmp ne i8 %call13, 0
  br i1 %tobool, label %if.then14, label %if.end15

if.then14:                                        ; preds = %if.then9
  store i32 0, ptr %retval, align 4
  br label %return

if.end15:                                         ; preds = %if.then9
  %20 = load i32, ptr %endIx, align 4
  %21 = load i32, ptr %startIx, align 4
  %sub = sub nsw i32 %20, %21
  store i32 %sub, ptr %fullLength, align 4
  %22 = load i32, ptr %fullLength, align 4
  store i32 %22, ptr %copyLength, align 4
  %23 = load i32, ptr %copyLength, align 4
  %24 = load i32, ptr %destCapacity.addr, align 4
  %cmp16 = icmp slt i32 %23, %24
  br i1 %cmp16, label %if.then17, label %if.else

if.then17:                                        ; preds = %if.end15
  %25 = load ptr, ptr %dest.addr, align 8
  %26 = load i32, ptr %copyLength, align 4
  %idxprom = sext i32 %26 to i64
  %arrayidx = getelementptr inbounds i16, ptr %25, i64 %idxprom
  store i16 0, ptr %arrayidx, align 2
  br label %if.end22

if.else:                                          ; preds = %if.end15
  %27 = load i32, ptr %copyLength, align 4
  %28 = load i32, ptr %destCapacity.addr, align 4
  %cmp18 = icmp eq i32 %27, %28
  br i1 %cmp18, label %if.then19, label %if.else20

if.then19:                                        ; preds = %if.else
  %29 = load ptr, ptr %status.addr, align 8
  store i32 -124, ptr %29, align 4
  br label %if.end21

if.else20:                                        ; preds = %if.else
  %30 = load i32, ptr %destCapacity.addr, align 4
  store i32 %30, ptr %copyLength, align 4
  %31 = load ptr, ptr %status.addr, align 8
  store i32 15, ptr %31, align 4
  br label %if.end21

if.end21:                                         ; preds = %if.else20, %if.then19
  br label %if.end22

if.end22:                                         ; preds = %if.end21, %if.then17
  %32 = load i32, ptr %copyLength, align 4
  %cmp23 = icmp sgt i32 %32, 0
  br i1 %cmp23, label %if.then24, label %if.end29

if.then24:                                        ; preds = %if.end22
  %33 = load ptr, ptr %dest.addr, align 8
  %34 = load ptr, ptr %regexp, align 8
  %fText25 = getelementptr inbounds %"struct.icu_75::RegularExpression", ptr %34, i32 0, i32 8
  %35 = load ptr, ptr %fText25, align 8
  %36 = load i32, ptr %startIx, align 4
  %idxprom26 = sext i32 %36 to i64
  %arrayidx27 = getelementptr inbounds i16, ptr %35, i64 %idxprom26
  %37 = load i32, ptr %copyLength, align 4
  %call28 = call ptr @u_memcpy_75(ptr noundef %33, ptr noundef %arrayidx27, i32 noundef %37)
  br label %if.end29

if.end29:                                         ; preds = %if.then24, %if.end22
  %38 = load i32, ptr %fullLength, align 4
  store i32 %38, ptr %retval, align 4
  br label %return

if.else30:                                        ; preds = %lor.lhs.false7
  %39 = load ptr, ptr %regexp, align 8
  %fMatcher31 = getelementptr inbounds %"struct.icu_75::RegularExpression", ptr %39, i32 0, i32 7
  %40 = load ptr, ptr %fMatcher31, align 8
  %41 = load i32, ptr %groupNum.addr, align 4
  %42 = load ptr, ptr %status.addr, align 8
  %call32 = call noundef i64 @_ZNK6icu_7512RegexMatcher7start64EiR10UErrorCode(ptr noundef nonnull align 8 dereferenceable(336) %40, i32 noundef %41, ptr noundef nonnull align 4 dereferenceable(4) %42)
  store i64 %call32, ptr %start, align 8
  %43 = load ptr, ptr %regexp, align 8
  %fMatcher33 = getelementptr inbounds %"struct.icu_75::RegularExpression", ptr %43, i32 0, i32 7
  %44 = load ptr, ptr %fMatcher33, align 8
  %45 = load i32, ptr %groupNum.addr, align 4
  %46 = load ptr, ptr %status.addr, align 8
  %call34 = call noundef i64 @_ZNK6icu_7512RegexMatcher5end64EiR10UErrorCode(ptr noundef nonnull align 8 dereferenceable(336) %44, i32 noundef %45, ptr noundef nonnull align 4 dereferenceable(4) %46)
  store i64 %call34, ptr %limit, align 8
  %47 = load ptr, ptr %status.addr, align 8
  %48 = load i32, ptr %47, align 4
  %call35 = call noundef signext i8 @_ZL9U_FAILURE10UErrorCode(i32 noundef %48)
  %tobool36 = icmp ne i8 %call35, 0
  br i1 %tobool36, label %if.then37, label %if.end38

if.then37:                                        ; preds = %if.else30
  store i32 0, ptr %retval, align 4
  br label %return

if.end38:                                         ; preds = %if.else30
  %49 = load ptr, ptr %regexp, align 8
  %fMatcher39 = getelementptr inbounds %"struct.icu_75::RegularExpression", ptr %49, i32 0, i32 7
  %50 = load ptr, ptr %fMatcher39, align 8
  %call40 = call noundef ptr @_ZNK6icu_7512RegexMatcher9inputTextEv(ptr noundef nonnull align 8 dereferenceable(336) %50)
  %51 = load i64, ptr %start, align 8
  %52 = load i64, ptr %limit, align 8
  %53 = load ptr, ptr %dest.addr, align 8
  %54 = load i32, ptr %destCapacity.addr, align 4
  %55 = load ptr, ptr %status.addr, align 8
  %call41 = call i32 @utext_extract_75(ptr noundef %call40, i64 noundef %51, i64 noundef %52, ptr noundef %53, i32 noundef %54, ptr noundef %55)
  store i32 %call41, ptr %length, align 4
  %56 = load i32, ptr %length, align 4
  store i32 %56, ptr %retval, align 4
  br label %return

return:                                           ; preds = %if.end38, %if.then37, %if.end29, %if.then14, %if.then4, %if.then
  %57 = load i32, ptr %retval, align 4
  ret i32 %57
}