; Function Attrs: mustprogress uwtable
define i32 @uregex_group_75(ptr noundef readonly %regexp2, i32 noundef %groupNum, ptr noundef %dest, i32 noundef %destCapacity, ptr noundef %status) local_unnamed_addr #5 {
entry:
  %0 = load i32, ptr %status, align 4
  %cmp.i.i = icmp slt i32 %0, 1
  br i1 %cmp.i.i, label %if.end.i, label %return

if.end.i:                                         ; preds = %entry
  %cmp.i = icmp eq ptr %regexp2, null
  br i1 %cmp.i, label %return.sink.split.i, label %lor.lhs.false.i

lor.lhs.false.i:                                  ; preds = %if.end.i
  %1 = load i32, ptr %regexp2, align 8
  %cmp1.not.i = icmp eq i32 %1, 1919252592
  br i1 %cmp1.not.i, label %if.end3.i, label %return.sink.split.i

if.end3.i:                                        ; preds = %lor.lhs.false.i
  %fText.i = getelementptr inbounds i8, ptr %regexp2, i64 48
  %2 = load ptr, ptr %fText.i, align 8
  %cmp5.i = icmp ne ptr %2, null
  br i1 %cmp5.i, label %if.end, label %land.lhs.true6.i

land.lhs.true6.i:                                 ; preds = %if.end3.i
  %fOwnsText.i = getelementptr inbounds i8, ptr %regexp2, i64 60
  %3 = load i8, ptr %fOwnsText.i, align 4
  %tobool7.not.i = icmp eq i8 %3, 0
  br i1 %tobool7.not.i, label %return.sink.split.i, label %if.end

return.sink.split.i:                              ; preds = %land.lhs.true6.i, %lor.lhs.false.i, %if.end.i
  %.sink.i = phi i32 [ 1, %lor.lhs.false.i ], [ 1, %if.end.i ], [ 66306, %land.lhs.true6.i ]
  store i32 %.sink.i, ptr %status, align 4
  br label %return

if.end:                                           ; preds = %land.lhs.true6.i, %if.end3.i
  %cmp1 = icmp slt i32 %destCapacity, 0
  br i1 %cmp1, label %if.then4, label %lor.lhs.false

lor.lhs.false:                                    ; preds = %if.end
  %cmp2 = icmp ne i32 %destCapacity, 0
  %cmp3 = icmp eq ptr %dest, null
  %or.cond = and i1 %cmp3, %cmp2
  br i1 %or.cond, label %if.then4, label %if.end5

if.then4:                                         ; preds = %lor.lhs.false, %if.end
  store i32 1, ptr %status, align 4
  br label %return

if.end5:                                          ; preds = %lor.lhs.false
  %cmp6 = icmp eq i32 %destCapacity, 0
  %brmerge = or i1 %cmp6, %cmp5.i
  %fMatcher = getelementptr inbounds i8, ptr %regexp2, i64 40
  %4 = load ptr, ptr %fMatcher, align 8
  br i1 %brmerge, label %if.then9, label %if.else30

if.then9:                                         ; preds = %if.end5
  %call10 = tail call noundef i32 @_ZNK6icu_7512RegexMatcher5startEiR10UErrorCode(ptr noundef nonnull align 8 dereferenceable(336) %4, i32 noundef %groupNum, ptr noundef nonnull align 4 dereferenceable(4) %status)
  %5 = load ptr, ptr %fMatcher, align 8
  %call12 = tail call noundef i32 @_ZNK6icu_7512RegexMatcher3endEiR10UErrorCode(ptr noundef nonnull align 8 dereferenceable(336) %5, i32 noundef %groupNum, ptr noundef nonnull align 4 dereferenceable(4) %status)
  %6 = load i32, ptr %status, align 4
  %cmp.i36 = icmp slt i32 %6, 1
  br i1 %cmp.i36, label %if.end15, label %return

if.end15:                                         ; preds = %if.then9
  %sub = sub nsw i32 %call12, %call10
  %cmp16 = icmp slt i32 %sub, %destCapacity
  br i1 %cmp16, label %if.then17, label %if.else

if.then17:                                        ; preds = %if.end15
  %idxprom = sext i32 %sub to i64
  %arrayidx = getelementptr inbounds i16, ptr %dest, i64 %idxprom
  store i16 0, ptr %arrayidx, align 2
  br label %if.end22

if.else:                                          ; preds = %if.end15
  %cmp18 = icmp eq i32 %sub, %destCapacity
  br i1 %cmp18, label %if.then19, label %if.else20

if.then19:                                        ; preds = %if.else
  store i32 -124, ptr %status, align 4
  br label %if.end22

if.else20:                                        ; preds = %if.else
  store i32 15, ptr %status, align 4
  br label %if.end22

if.end22:                                         ; preds = %if.then19, %if.else20, %if.then17
  %copyLength.0 = phi i32 [ %sub, %if.then17 ], [ %destCapacity, %if.then19 ], [ %destCapacity, %if.else20 ]
  %cmp23 = icmp sgt i32 %copyLength.0, 0
  br i1 %cmp23, label %if.then24, label %return

if.then24:                                        ; preds = %if.end22
  %7 = load ptr, ptr %fText.i, align 8
  %idxprom26 = sext i32 %call10 to i64
  %arrayidx27 = getelementptr inbounds i16, ptr %7, i64 %idxprom26
  %call28 = tail call ptr @u_memcpy_75(ptr noundef %dest, ptr noundef %arrayidx27, i32 noundef %copyLength.0)
  br label %return

if.else30:                                        ; preds = %if.end5
  %call32 = tail call noundef i64 @_ZNK6icu_7512RegexMatcher7start64EiR10UErrorCode(ptr noundef nonnull align 8 dereferenceable(336) %4, i32 noundef %groupNum, ptr noundef nonnull align 4 dereferenceable(4) %status)
  %8 = load ptr, ptr %fMatcher, align 8
  %call34 = tail call noundef i64 @_ZNK6icu_7512RegexMatcher5end64EiR10UErrorCode(ptr noundef nonnull align 8 dereferenceable(336) %8, i32 noundef %groupNum, ptr noundef nonnull align 4 dereferenceable(4) %status)
  %9 = load i32, ptr %status, align 4
  %cmp.i37 = icmp slt i32 %9, 1
  br i1 %cmp.i37, label %if.end38, label %return

if.end38:                                         ; preds = %if.else30
  %10 = load ptr, ptr %fMatcher, align 8
  %call40 = tail call noundef ptr @_ZNK6icu_7512RegexMatcher9inputTextEv(ptr noundef nonnull align 8 dereferenceable(336) %10)
  %call41 = tail call i32 @utext_extract_75(ptr noundef %call40, i64 noundef %call32, i64 noundef %call34, ptr noundef %dest, i32 noundef %destCapacity, ptr noundef nonnull %status)
  br label %return

return:                                           ; preds = %return.sink.split.i, %entry, %if.else30, %if.end22, %if.then24, %if.then9, %if.end38, %if.then4
  %retval.0 = phi i32 [ 0, %if.then4 ], [ %call41, %if.end38 ], [ 0, %if.then9 ], [ %sub, %if.then24 ], [ %sub, %if.end22 ], [ 0, %if.else30 ], [ 0, %entry ], [ 0, %return.sink.split.i ]
  ret i32 %retval.0
}